Certificate:
    Data:
        Version: 3 (0x2)
        Serial Number: 1 (0x1)
        Signature Algorithm: sha256WithRSAEncryption
        Issuer: O=Test Org, CN=Test Org rauc CA Development
        Validity
            Not Before: Jan  1 00:00:00 1970 GMT
            Not After : Dec 31 23:59:59 9999 GMT
        Subject: O=Test Org, CN=Test Org rauc CA Development
        Subject Public Key Info:
            Public Key Algorithm: rsaEncryption
                RSA Public-Key: (2048 bit)
                Modulus:
                    00:e8:fd:f7:69:39:25:dd:9a:b8:c2:59:32:e6:49:
                    12:85:f3:c3:54:2e:ff:be:87:e8:5c:31:7e:c0:9c:
                    9f:67:a4:12:01:b2:e7:8e:23:c2:ae:ee:7d:d6:0c:
                    44:b2:38:60:2d:e7:14:6d:a2:56:63:03:55:f1:1f:
                    4b:27:9d:51:ac:e7:c4:bd:dd:b3:57:92:47:02:06:
                    9c:97:c1:2a:97:ac:de:0f:96:a2:6c:c0:bc:03:bd:
                    43:30:0d:c3:11:03:54:2b:16:4d:08:21:d3:15:9e:
                    9c:fb:64:a6:52:8b:34:eb:b4:60:21:d6:7b:e4:09:
                    17:75:2f:e9:61:9b:93:6e:f7:09:45:67:e6:50:9f:
                    31:86:e5:01:d3:14:c3:b2:16:18:fe:5a:78:b5:9f:
                    aa:ee:d6:71:bb:92:c8:ac:e6:38:17:ef:3f:cc:ae:
                    92:e0:d6:fa:30:a9:82:db:dc:c2:e0:0a:c6:83:a5:
                    2a:f6:02:70:4c:f6:82:50:1b:e4:94:18:ae:0a:6b:
                    18:82:10:ab:7a:b4:11:33:0d:bc:4b:0c:36:24:fc:
                    6f:b7:09:c2:64:44:af:7f:24:d0:c3:ee:d1:03:c6:
                    fa:4d:5c:67:83:75:ce:c7:b9:e5:d5:11:c7:23:f3:
                    d1:f9:4d:98:27:a8:6a:bd:54:58:10:41:a9:44:94:
                    1c:1d
                Exponent: 65537 (0x10001)
        X509v3 extensions:
            X509v3 Subject Key Identifier: 
                9B:70:24:C6:A5:5A:39:78:0A:EB:25:27:13:D3:F1:C6:B4:52:76:79
            X509v3 Authority Key Identifier: 
                keyid:9B:70:24:C6:A5:5A:39:78:0A:EB:25:27:13:D3:F1:C6:B4:52:76:79
                DirName:/O=Test Org/CN=Test Org rauc CA Development
                serial:01

            X509v3 Basic Constraints: 
                CA:TRUE
    Signature Algorithm: sha256WithRSAEncryption
         75:1b:17:97:83:e6:37:52:c0:06:06:ff:04:92:4f:f1:7d:7f:
         14:f5:3f:e2:12:c5:c9:ff:6f:51:f4:6e:85:21:0b:bf:2e:68:
         d0:31:8e:90:e9:f4:cd:bb:00:9f:c4:32:90:d3:c1:80:48:92:
         5b:64:39:94:25:1f:23:a7:db:e1:42:51:50:6b:3e:2f:c3:bd:
         0e:02:f3:a3:bb:03:9c:26:4d:58:82:dd:f1:53:e7:5b:8c:e3:
         4b:23:75:5c:e1:e5:2b:03:41:1a:8a:00:81:ae:fb:b9:70:09:
         9c:14:28:3e:2c:df:50:eb:cf:82:c1:4d:ca:f6:cc:a9:37:22:
         77:36:0c:d6:c3:8a:85:64:25:c5:e3:05:41:05:1c:fe:4f:97:
         e3:dc:a4:16:b4:35:23:8a:43:64:64:9f:78:71:70:9a:6a:ed:
         e2:5e:08:65:07:f7:2e:d1:4a:59:fc:1c:52:7b:36:66:ae:ac:
         0d:21:1c:0e:ae:8f:d0:d8:82:3f:b9:5a:d6:f7:6c:26:6f:f7:
         61:20:99:99:ee:ec:c6:09:af:73:99:b1:d8:c5:45:1c:de:1e:
         30:34:e5:f4:94:41:bd:3c:e5:34:c4:53:80:1f:43:62:28:a4:
         6f:5d:67:c2:7d:ec:84:20:33:20:42:f6:60:d1:b9:cb:26:69:
         9b:04:a6:f8
-----BEGIN CERTIFICATE-----
MIIDhjCCAm6gAwIBAgIBATANBgkqhkiG9w0BAQsFADA6MREwDwYDVQQKDAhUZXN0
IE9yZzElMCMGA1UEAwwcVGVzdCBPcmcgcmF1YyBDQSBEZXZlbG9wbWVudDAgFw03
MDAxMDEwMDAwMDBaGA85OTk5MTIzMTIzNTk1OVowOjERMA8GA1UECgwIVGVzdCBP
cmcxJTAjBgNVBAMMHFRlc3QgT3JnIHJhdWMgQ0EgRGV2ZWxvcG1lbnQwggEiMA0G
CSqGSIb3DQEBAQUAA4IBDwAwggEKAoIBAQDo/fdpOSXdmrjCWTLmSRKF88NULv++
h+hcMX7AnJ9npBIBsueOI8Ku7n3WDESyOGAt5xRtolZjA1XxH0snnVGs58S93bNX
kkcCBpyXwSqXrN4PlqJswLwDvUMwDcMRA1QrFk0IIdMVnpz7ZKZSizTrtGAh1nvk
CRd1L+lhm5Nu9wlFZ+ZQnzGG5QHTFMOyFhj+Wni1n6ru1nG7ksis5jgX7z/MrpLg
1vowqYLb3MLgCsaDpSr2AnBM9oJQG+SUGK4KaxiCEKt6tBEzDbxLDDYk/G+3CcJk
RK9/JNDD7tEDxvpNXGeDdc7HueXVEccj89H5TZgnqGq9VFgQQalElBwdAgMBAAGj
gZQwgZEwHQYDVR0OBBYEFJtwJMalWjl4CuslJxPT8ca0UnZ5MGIGA1UdIwRbMFmA
FJtwJMalWjl4CuslJxPT8ca0UnZ5oT6kPDA6MREwDwYDVQQKDAhUZXN0IE9yZzEl
MCMGA1UEAwwcVGVzdCBPcmcgcmF1YyBDQSBEZXZlbG9wbWVudIIBATAMBgNVHRME
BTADAQH/MA0GCSqGSIb3DQEBCwUAA4IBAQB1GxeXg+Y3UsAGBv8Ekk/xfX8U9T/i
EsXJ/29R9G6FIQu/LmjQMY6Q6fTNuwCfxDKQ08GASJJbZDmUJR8jp9vhQlFQaz4v
w70OAvOjuwOcJk1Ygt3xU+dbjONLI3Vc4eUrA0EaigCBrvu5cAmcFCg+LN9Q68+C
wU3K9sypNyJ3NgzWw4qFZCXF4wVBBRz+T5fj3KQWtDUjikNkZJ94cXCaau3iXghl
B/cu0UpZ/BxSezZmrqwNIRwOro/Q2II/uVrW92wmb/dhIJmZ7uzGCa9zmbHYxUUc
3h4wNOX0lEG9POU0xFOAH0NiKKRvXWfCfeyEIDMgQvZg0bnLJmmbBKb4
-----END CERTIFICATE-----
