Certificate:
    Data:
        Version: 3 (0x2)
        Serial Number: 2 (0x2)
        Signature Algorithm: sha256WithRSAEncryption
        Issuer: O=Test Org, CN=Test Org rauc CA Development
        Validity
            Not Before: Jan  1 00:00:00 1970 GMT
            Not After : Dec 31 23:59:59 9999 GMT
        Subject: O=Test Org, CN=Test Org Development-1
        Subject Public Key Info:
            Public Key Algorithm: rsaEncryption
                RSA Public-Key: (2048 bit)
                Modulus:
                    00:ad:98:3e:f6:c6:6d:8c:23:b2:1c:7e:7a:6d:6e:
                    b4:fd:be:31:77:c6:59:48:bd:f9:27:65:ec:35:74:
                    cf:6f:2b:04:3f:0b:4b:e0:0e:6f:b2:92:2a:46:d8:
                    72:87:49:a8:22:5e:f8:6a:f3:50:68:35:3c:df:18:
                    5e:1b:9a:c3:c1:26:60:cb:fb:78:d1:8f:d8:74:32:
                    ca:a3:34:13:f9:a5:7f:f6:cc:37:d6:b6:c9:16:f8:
                    66:d3:fb:01:94:d3:92:9d:43:bf:1f:fc:cd:5e:6a:
                    98:0a:e8:c1:b2:26:6e:43:4b:0b:2d:b2:47:87:dd:
                    54:a6:c3:74:94:38:10:12:cd:b0:bd:af:80:cc:d5:
                    c2:2b:29:9c:55:45:95:50:8b:96:66:a3:4f:e6:54:
                    25:51:8f:c3:4c:e2:94:f3:cb:a0:b2:4b:6c:d3:5f:
                    36:66:39:4e:ee:fe:60:c9:f4:06:ae:7e:80:9a:4b:
                    08:7b:ce:93:23:e0:21:da:88:0e:2e:3d:42:33:20:
                    bb:c2:25:ce:ee:68:2e:0c:72:0a:97:f8:8c:d4:01:
                    12:46:4d:08:fd:27:f4:e4:f7:af:e1:69:f1:19:c4:
                    a1:76:02:8b:d8:45:e7:e7:31:5c:8f:f2:88:d5:55:
                    1a:31:30:34:72:89:b0:28:62:72:b2:03:d1:a0:1b:
                    70:47
                Exponent: 65537 (0x10001)
        X509v3 extensions:
            X509v3 Subject Key Identifier: 
                14:EB:9D:17:A0:17:50:60:D2:4E:52:9E:58:C4:0A:FA:00:66:13:73
            X509v3 Authority Key Identifier: 
                keyid:9B:70:24:C6:A5:5A:39:78:0A:EB:25:27:13:D3:F1:C6:B4:52:76:79
                DirName:/O=Test Org/CN=Test Org rauc CA Development
                serial:01

            X509v3 Basic Constraints: 
                CA:FALSE
    Signature Algorithm: sha256WithRSAEncryption
         cf:5f:a1:98:7f:4a:39:c8:30:3e:77:f0:cb:5d:bd:9f:b8:a3:
         f3:f7:5a:2c:d7:ed:13:60:c8:09:b9:a5:67:7f:73:2d:94:27:
         ef:32:e7:8f:82:87:38:a6:c3:2b:7f:2b:d8:47:8c:cf:52:c3:
         4e:8d:ed:38:b1:d6:26:b2:4d:b0:2c:d7:95:05:26:c8:17:78:
         60:2e:01:91:75:44:d9:7b:f3:db:69:8e:b0:9c:ca:28:72:bf:
         96:49:29:07:1c:98:4d:19:d7:50:0b:46:81:d5:fa:f3:2b:49:
         59:f4:4d:b7:32:7e:8b:e4:b0:db:db:81:00:14:e8:b0:2f:69:
         f0:2c:1d:45:9e:9c:92:20:a9:2e:a7:e5:0e:39:94:66:f3:a7:
         1b:9e:26:ad:09:76:16:5b:28:2f:a0:6f:97:de:32:e4:26:ee:
         79:87:0e:a9:14:c7:a3:d7:cc:c2:05:93:b7:50:35:72:2d:87:
         c7:e3:23:3e:f6:8c:26:07:22:dd:b9:4f:4a:b9:de:bd:7f:16:
         37:48:db:d1:d8:cd:35:0e:86:18:bb:5c:d4:e1:d6:23:d5:53:
         15:56:2f:08:a1:bb:d1:3c:92:de:b3:1e:e0:e1:71:f7:bc:1e:
         0f:47:67:c5:02:b7:ec:06:4a:28:02:c1:7b:58:95:10:09:e1:
         aa:07:9d:07
-----BEGIN CERTIFICATE-----
MIIDfTCCAmWgAwIBAgIBAjANBgkqhkiG9w0BAQsFADA6MREwDwYDVQQKDAhUZXN0
IE9yZzElMCMGA1UEAwwcVGVzdCBPcmcgcmF1YyBDQSBEZXZlbG9wbWVudDAgFw03
MDAxMDEwMDAwMDBaGA85OTk5MTIzMTIzNTk1OVowNDERMA8GA1UECgwIVGVzdCBP
cmcxHzAdBgNVBAMMFlRlc3QgT3JnIERldmVsb3BtZW50LTEwggEiMA0GCSqGSIb3
DQEBAQUAA4IBDwAwggEKAoIBAQCtmD72xm2MI7IcfnptbrT9vjF3xllIvfknZew1
dM9vKwQ/C0vgDm+ykipG2HKHSagiXvhq81BoNTzfGF4bmsPBJmDL+3jRj9h0Msqj
NBP5pX/2zDfWtskW+GbT+wGU05KdQ78f/M1eapgK6MGyJm5DSwstskeH3VSmw3SU
OBASzbC9r4DM1cIrKZxVRZVQi5Zmo0/mVCVRj8NM4pTzy6CyS2zTXzZmOU7u/mDJ
9AaufoCaSwh7zpMj4CHaiA4uPUIzILvCJc7uaC4McgqX+IzUARJGTQj9J/Tk96/h
afEZxKF2AovYRefnMVyP8ojVVRoxMDRyibAoYnKyA9GgG3BHAgMBAAGjgZEwgY4w
HQYDVR0OBBYEFBTrnRegF1Bg0k5SnljECvoAZhNzMGIGA1UdIwRbMFmAFJtwJMal
Wjl4CuslJxPT8ca0UnZ5oT6kPDA6MREwDwYDVQQKDAhUZXN0IE9yZzElMCMGA1UE
AwwcVGVzdCBPcmcgcmF1YyBDQSBEZXZlbG9wbWVudIIBATAJBgNVHRMEAjAAMA0G
CSqGSIb3DQEBCwUAA4IBAQDPX6GYf0o5yDA+d/DLXb2fuKPz91os1+0TYMgJuaVn
f3MtlCfvMuePgoc4psMrfyvYR4zPUsNOje04sdYmsk2wLNeVBSbIF3hgLgGRdUTZ
e/PbaY6wnMoocr+WSSkHHJhNGddQC0aB1frzK0lZ9E23Mn6L5LDb24EAFOiwL2nw
LB1FnpySIKkup+UOOZRm86cbniatCXYWWygvoG+X3jLkJu55hw6pFMej18zCBZO3
UDVyLYfH4yM+9owmByLduU9Kud69fxY3SNvR2M01DoYYu1zU4dYj1VMVVi8IobvR
PJLesx7g4XH3vB4PR2fFArfsBkooAsF7WJUQCeGqB50H
-----END CERTIFICATE-----
